; ModuleID = 'source-C-CXX/49/1376.c'
source_filename = "source-C-CXX/49/1376.c"
target datalayout = "e-m:e-p270:32:32-p271:32:32-p272:64:64-i64:64-f80:128-n8:16:32:64-S128"
target triple = "x86_64-pc-linux-gnu"

@.str = private unnamed_addr constant [3 x i8] c"%d\00", align 1
@.str.1 = private unnamed_addr constant [4 x i8] c"%d\0A\00", align 1

; Function Attrs: nofree nounwind sspstrong uwtable
define dso_local i32 @main() local_unnamed_addr #0 {
  %1 = alloca i32, align 4
  %2 = bitcast i32* %1 to i8*
  call void @llvm.lifetime.start.p0i8(i64 4, i8* nonnull %2) #3
  %3 = call i32 (i8*, ...) @__isoc99_scanf(i8* getelementptr inbounds ([3 x i8], [3 x i8]* @.str, i64 0, i64 0), i32* nonnull %1)
  %4 = load i32, i32* %1, align 4, !tbaa !5
  switch i32 %4, label %8 [
    i32 0, label %5
    i32 7, label %5
  ]

5:                                                ; preds = %0, %0
  %6 = call i32 (i8*, ...) @printf(i8* nonnull dereferenceable(1) getelementptr inbounds ([4 x i8], [4 x i8]* @.str.1, i64 0, i64 0), i32 1)
  %7 = load i32, i32* %1, align 4, !tbaa !5
  br label %8

8:                                                ; preds = %0, %5
  %9 = phi i32 [ %4, %0 ], [ %7, %5 ]
  switch i32 %9, label %12 [
    i32 4, label %10
    i32 11, label %10
  ]

10:                                               ; preds = %8, %8
  %11 = call i32 (i8*, ...) @printf(i8* nonnull dereferenceable(1) getelementptr inbounds ([4 x i8], [4 x i8]* @.str.1, i64 0, i64 0), i32 2)
  br label %12

12:                                               ; preds = %8, %10
  %13 = load i32, i32* %1, align 4, !tbaa !5
  switch i32 %13, label %16 [
    i32 4, label %14
    i32 11, label %14
  ]

14:                                               ; preds = %12, %12
  %15 = call i32 (i8*, ...) @printf(i8* nonnull dereferenceable(1) getelementptr inbounds ([4 x i8], [4 x i8]* @.str.1, i64 0, i64 0), i32 3)
  br label %16

16:                                               ; preds = %12, %14
  %17 = load i32, i32* %1, align 4, !tbaa !5
  switch i32 %17, label %20 [
    i32 1, label %18
    i32 8, label %18
  ]

18:                                               ; preds = %16, %16
  %19 = call i32 (i8*, ...) @printf(i8* nonnull dereferenceable(1) getelementptr inbounds ([4 x i8], [4 x i8]* @.str.1, i64 0, i64 0), i32 4)
  br label %20

20:                                               ; preds = %18, %16
  %21 = load i32, i32* %1, align 4, !tbaa !5
  switch i32 %21, label %24 [
    i32 6, label %22
    i32 13, label %22
  ]

22:                                               ; preds = %20, %20
  %23 = call i32 (i8*, ...) @printf(i8* nonnull dereferenceable(1) getelementptr inbounds ([4 x i8], [4 x i8]* @.str.1, i64 0, i64 0), i32 5)
  br label %24

24:                                               ; preds = %22, %20
  %25 = load i32, i32* %1, align 4, !tbaa !5
  switch i32 %25, label %28 [
    i32 3, label %26
    i32 10, label %26
  ]

26:                                               ; preds = %24, %24
  %27 = call i32 (i8*, ...) @printf(i8* nonnull dereferenceable(1) getelementptr inbounds ([4 x i8], [4 x i8]* @.str.1, i64 0, i64 0), i32 6)
  br label %28

28:                                               ; preds = %26, %24
  %29 = load i32, i32* %1, align 4, !tbaa !5
  switch i32 %29, label %32 [
    i32 1, label %30
    i32 8, label %30
  ]

30:                                               ; preds = %28, %28
  %31 = call i32 (i8*, ...) @printf(i8* nonnull dereferenceable(1) getelementptr inbounds ([4 x i8], [4 x i8]* @.str.1, i64 0, i64 0), i32 7)
  br label %32

32:                                               ; preds = %30, %28
  %33 = load i32, i32* %1, align 4, !tbaa !5
  switch i32 %33, label %36 [
    i32 5, label %34
    i32 12, label %34
  ]

34:                                               ; preds = %32, %32
  %35 = call i32 (i8*, ...) @printf(i8* nonnull dereferenceable(1) getelementptr inbounds ([4 x i8], [4 x i8]* @.str.1, i64 0, i64 0), i32 8)
  br label %36

36:                                               ; preds = %34, %32
  %37 = load i32, i32* %1, align 4, !tbaa !5
  switch i32 %37, label %40 [
    i32 2, label %38
    i32 9, label %38
  ]

38:                                               ; preds = %36, %36
  %39 = call i32 (i8*, ...) @printf(i8* nonnull dereferenceable(1) getelementptr inbounds ([4 x i8], [4 x i8]* @.str.1, i64 0, i64 0), i32 9)
  br label %40

40:                                               ; preds = %38, %36
  %41 = load i32, i32* %1, align 4, !tbaa !5
  switch i32 %41, label %44 [
    i32 0, label %42
    i32 7, label %42
  ]

42:                                               ; preds = %40, %40
  %43 = call i32 (i8*, ...) @printf(i8* nonnull dereferenceable(1) getelementptr inbounds ([4 x i8], [4 x i8]* @.str.1, i64 0, i64 0), i32 10)
  br label %44

44:                                               ; preds = %42, %40
  %45 = load i32, i32* %1, align 4, !tbaa !5
  switch i32 %45, label %48 [
    i32 4, label %46
    i32 11, label %46
  ]

46:                                               ; preds = %44, %44
  %47 = call i32 (i8*, ...) @printf(i8* nonnull dereferenceable(1) getelementptr inbounds ([4 x i8], [4 x i8]* @.str.1, i64 0, i64 0), i32 11)
  br label %48

48:                                               ; preds = %46, %44
  %49 = load i32, i32* %1, align 4, !tbaa !5
  switch i32 %49, label %52 [
    i32 2, label %50
    i32 9, label %50
  ]

50:                                               ; preds = %48, %48
  %51 = call i32 (i8*, ...) @printf(i8* nonnull dereferenceable(1) getelementptr inbounds ([4 x i8], [4 x i8]* @.str.1, i64 0, i64 0), i32 12)
  br label %52

52:                                               ; preds = %50, %48
  call void @llvm.lifetime.end.p0i8(i64 4, i8* nonnull %2) #3
  ret i32 0
}

; Function Attrs: argmemonly mustprogress nofree nosync nounwind willreturn
declare void @llvm.lifetime.start.p0i8(i64 immarg, i8* nocapture) #1

; Function Attrs: nofree nounwind
declare noundef i32 @__isoc99_scanf(i8* nocapture noundef readonly, ...) local_unnamed_addr #2

; Function Attrs: nofree nounwind
declare noundef i32 @printf(i8* nocapture noundef readonly, ...) local_unnamed_addr #2

; Function Attrs: argmemonly mustprogress nofree nosync nounwind willreturn
declare void @llvm.lifetime.end.p0i8(i64 immarg, i8* nocapture) #1


!llvm.module.flags = !{!0, !1, !2, !3}
!llvm.ident = !{!4}

!0 = !{i32 1, !"wchar_size", i32 4}
!1 = !{i32 7, !"PIC Level", i32 2}
!2 = !{i32 7, !"PIE Level", i32 2}
!3 = !{i32 7, !"uwtable", i32 1}
!4 = !{!"clang version 13.0.0"}
!5 = !{!6, !6, i64 0}
!6 = !{!"int", !7, i64 0}
!7 = !{!"omnipotent char", !8, i64 0}
!8 = !{!"Simple C/C++ TBAA"}
